target datalayout = "e-m:e-p270:32:32-p271:32:32-p272:64:64-i64:64-i128:128-f80:128-n8:16:32:64-S128"
target triple = "x86_64-unknown-linux-gnu"

%"class.icu_75::Locale" = type <{ %"class.icu_75::UObject", [12 x i8], [6 x i8], [4 x i8], [2 x i8], i32, [4 x i8], ptr, [157 x i8], [3 x i8], ptr, i8, [7 x i8] }>
%"class.icu_75::UObject" = type { ptr }

; Function Attrs: mustprogress nounwind uwtable
define noundef zeroext i1 @_ZNK6icu_756LocaleeqERKS0_(ptr noundef nonnull align 8 dereferenceable(217) %this, ptr noundef nonnull align 8 dereferenceable(217) %other) #0 align 2 {
entry:
  %this.addr = alloca ptr, align 8
  %other.addr = alloca ptr, align 8
  store ptr %this, ptr %this.addr, align 8
  store ptr %other, ptr %other.addr, align 8
  %this1 = load ptr, ptr %this.addr, align 8
  %0 = load ptr, ptr %other.addr, align 8
  %fullName = getelementptr inbounds %"class.icu_75::Locale", ptr %0, i32 0, i32 7
  %1 = load ptr, ptr %fullName, align 8
  %fullName2 = getelementptr inbounds %"class.icu_75::Locale", ptr %this1, i32 0, i32 7
  %2 = load ptr, ptr %fullName2, align 8
  %call = call i32 @strcmp(ptr noundef %1, ptr noundef %2) #13
  %cmp = icmp eq i32 %call, 0
  ret i1 %cmp
}