; Function Attrs: mustprogress nofree nounwind willreturn memory(read, inaccessiblemem: none) uwtable
define noundef zeroext i1 @_ZNK6icu_756LocaleeqERKS0_(ptr nocapture noundef nonnull readonly align 8 dereferenceable(217) %this, ptr nocapture noundef nonnull readonly align 8 dereferenceable(217) %other) local_unnamed_addr #11 align 2 {
entry:
  %fullName = getelementptr inbounds i8, ptr %other, i64 40
  %0 = load ptr, ptr %fullName, align 8
  %fullName2 = getelementptr inbounds i8, ptr %this, i64 40
  %1 = load ptr, ptr %fullName2, align 8
  %call = tail call i32 @strcmp(ptr noundef nonnull dereferenceable(1) %0, ptr noundef nonnull dereferenceable(1) %1) #23
  %cmp = icmp eq i32 %call, 0
  ret i1 %cmp
}